; Function Attrs: mustprogress uwtable
define noundef i32 @_ZN6LibRaw4get4Ev(ptr noundef nonnull readonly align 8 captures(none) dereferenceable(767680) %0) local_unnamed_addr #1 align 2 {
  %2 = alloca [4 x i8], align 4
  call void @llvm.lifetime.start.p0(i64 4, ptr nonnull %2) #5
  store i32 -1, ptr %2, align 4
  %3 = getelementptr inbounds nuw i8, ptr %0, i64 381416
  %4 = load ptr, ptr %3, align 8, !tbaa !72
  %5 = load ptr, ptr %4, align 8, !tbaa !73
  %6 = getelementptr inbounds nuw i8, ptr %5, i64 24
  %7 = load ptr, ptr %6, align 8
  %8 = call noundef i32 %7(ptr noundef nonnull align 8 dereferenceable(8) %4, ptr noundef nonnull %2, i64 noundef 1, i64 noundef 4)
  %9 = getelementptr inbounds nuw i8, ptr %0, i64 381552
  %10 = load i16, ptr %9, align 8, !tbaa !6
  %11 = icmp eq i16 %10, 18761
  br i1 %11, label %12, label %14

12:                                               ; preds = %1
  %13 = load i32, ptr %2, align 4
  br label %_ZN6LibRaw5sget4EPh.exit

14:                                               ; preds = %1
  %15 = load i8, ptr %2, align 4, !tbaa !71
  %16 = zext i8 %15 to i32
  %17 = shl nuw i32 %16, 24
  %18 = getelementptr inbounds nuw i8, ptr %2, i64 1
  %19 = load i8, ptr %18, align 1, !tbaa !71
  %20 = zext i8 %19 to i32
  %21 = shl nuw nsw i32 %20, 16
  %22 = or disjoint i32 %21, %17
  %23 = getelementptr inbounds nuw i8, ptr %2, i64 2
  %24 = load i8, ptr %23, align 2, !tbaa !71
  %25 = zext i8 %24 to i32
  %26 = shl nuw nsw i32 %25, 8
  %27 = or disjoint i32 %22, %26
  %28 = getelementptr inbounds nuw i8, ptr %2, i64 3
  %29 = load i8, ptr %28, align 1, !tbaa !71
  %30 = zext i8 %29 to i32
  %31 = or disjoint i32 %27, %30
  br label %_ZN6LibRaw5sget4EPh.exit

_ZN6LibRaw5sget4EPh.exit:                         ; preds = %12, %14
  %.0.i.i = phi i32 [ %13, %12 ], [ %31, %14 ]
  call void @llvm.lifetime.end.p0(i64 4, ptr nonnull %2) #5
  ret i32 %.0.i.i
}